target datalayout = "e-m:e-p270:32:32-p271:32:32-p272:64:64-i64:64-i128:128-f80:128-n8:16:32:64-S128"
target triple = "x86_64-pc-linux-gnu"

%struct.WALOpenSegment = type { i32, i64, i32 }
%struct.WALReadError = type { i32, i32, i32, i32, %struct.WALOpenSegment }

@.str.1 = private unnamed_addr constant [12 x i8] c"xlogutils.c\00", align 1
@wal_segment_size = external global i32, align 4
@.str.10 = private unnamed_addr constant [50 x i8] c"could not read from WAL segment %s, offset %d: %m\00", align 1
@__func__.WALReadRaiseError = private unnamed_addr constant [18 x i8] c"WALReadRaiseError\00", align 1
@.str.11 = private unnamed_addr constant [61 x i8] c"could not read from WAL segment %s, offset %d: read %d of %d\00", align 1
@.str.18 = private unnamed_addr constant [13 x i8] c"%08X%08X%08X\00", align 1

; Function Attrs: inlinehint nounwind uwtable
define internal void @XLogFileName(ptr noundef %0, i32 noundef %1, i64 noundef %2, i32 noundef %3) #6 {
  %5 = alloca ptr, align 8
  %6 = alloca i32, align 4
  %7 = alloca i64, align 8
  %8 = alloca i32, align 4
  store ptr %0, ptr %5, align 8
  store i32 %1, ptr %6, align 4
  store i64 %2, ptr %7, align 8
  store i32 %3, ptr %8, align 4
  %9 = load ptr, ptr %5, align 8
  %10 = load i32, ptr %6, align 4
  %11 = load i64, ptr %7, align 8
  %12 = load i32, ptr %8, align 4
  %13 = sext i32 %12 to i64
  %14 = udiv i64 4294967296, %13
  %15 = udiv i64 %11, %14
  %16 = trunc i64 %15 to i32
  %17 = load i64, ptr %7, align 8
  %18 = load i32, ptr %8, align 4
  %19 = sext i32 %18 to i64
  %20 = udiv i64 4294967296, %19
  %21 = urem i64 %17, %20
  %22 = trunc i64 %21 to i32
  %23 = call i32 (ptr, i64, ptr, ...) @pg_snprintf(ptr noundef %9, i64 noundef 64, ptr noundef @.str.18, i32 noundef %10, i32 noundef %16, i32 noundef %22)
  ret void
}

; Function Attrs: nounwind uwtable
define dso_local void @WALReadRaiseError(ptr noundef %0) #0 {
  %2 = alloca ptr, align 8
  %3 = alloca ptr, align 8
  %4 = alloca [64 x i8], align 16
  store ptr %0, ptr %2, align 8
  call void @llvm.lifetime.start.p0(i64 8, ptr %3) #10
  %5 = load ptr, ptr %2, align 8
  %6 = getelementptr inbounds nuw %struct.WALReadError, ptr %5, i32 0, i32 4
  store ptr %6, ptr %3, align 8
  call void @llvm.lifetime.start.p0(i64 64, ptr %4) #10
  %7 = getelementptr inbounds [64 x i8], ptr %4, i64 0, i64 0
  %8 = load ptr, ptr %3, align 8
  %9 = getelementptr inbounds nuw %struct.WALOpenSegment, ptr %8, i32 0, i32 2
  %10 = load i32, ptr %9, align 8
  %11 = load ptr, ptr %3, align 8
  %12 = getelementptr inbounds nuw %struct.WALOpenSegment, ptr %11, i32 0, i32 1
  %13 = load i64, ptr %12, align 8
  %14 = load i32, ptr @wal_segment_size, align 4
  call void @XLogFileName(ptr noundef %7, i32 noundef %10, i64 noundef %13, i32 noundef %14)
  %15 = load ptr, ptr %2, align 8
  %16 = getelementptr inbounds nuw %struct.WALReadError, ptr %15, i32 0, i32 3
  %17 = load i32, ptr %16, align 4
  %18 = icmp slt i32 %17, 0
  br i1 %18, label %19, label %39

19:                                               ; preds = %1
  %20 = load ptr, ptr %2, align 8
  %21 = getelementptr inbounds nuw %struct.WALReadError, ptr %20, i32 0, i32 0
  %22 = load i32, ptr %21, align 8
  %23 = call ptr @__errno_location() #12
  store i32 %22, ptr %23, align 4
  br label %24

24:                                               ; preds = %19
  br i1 true, label %25, label %27

25:                                               ; preds = %24
  %26 = call zeroext i1 @errstart_cold(i32 noundef 21, ptr noundef null) #11
  br i1 %26, label %29, label %36

27:                                               ; preds = %24
  %28 = call zeroext i1 @errstart(i32 noundef 21, ptr noundef null)
  br i1 %28, label %29, label %36

29:                                               ; preds = %27, %25
  %30 = call i32 @errcode_for_file_access()
  %31 = getelementptr inbounds [64 x i8], ptr %4, i64 0, i64 0
  %32 = load ptr, ptr %2, align 8
  %33 = getelementptr inbounds nuw %struct.WALReadError, ptr %32, i32 0, i32 1
  %34 = load i32, ptr %33, align 4
  %35 = call i32 (ptr, ...) @errmsg(ptr noundef @.str.10, ptr noundef %31, i32 noundef %34)
  call void @errfinish(ptr noundef @.str.1, i32 noundef 1033, ptr noundef @__func__.WALReadRaiseError)
  br label %36

36:                                               ; preds = %29, %27, %25
  unreachable

37:                                               ; No predecessors!
  br label %38

38:                                               ; preds = %37
  br label %67

39:                                               ; preds = %1
  %40 = load ptr, ptr %2, align 8
  %41 = getelementptr inbounds nuw %struct.WALReadError, ptr %40, i32 0, i32 3
  %42 = load i32, ptr %41, align 4
  %43 = icmp eq i32 %42, 0
  br i1 %43, label %44, label %66

44:                                               ; preds = %39
  br label %45

45:                                               ; preds = %44
  br i1 true, label %46, label %48

46:                                               ; preds = %45
  %47 = call zeroext i1 @errstart_cold(i32 noundef 21, ptr noundef null) #11
  br i1 %47, label %50, label %63

48:                                               ; preds = %45
  %49 = call zeroext i1 @errstart(i32 noundef 21, ptr noundef null)
  br i1 %49, label %50, label %63

50:                                               ; preds = %48, %46
  %51 = call i32 @errcode(i32 noundef 16779816)
  %52 = getelementptr inbounds [64 x i8], ptr %4, i64 0, i64 0
  %53 = load ptr, ptr %2, align 8
  %54 = getelementptr inbounds nuw %struct.WALReadError, ptr %53, i32 0, i32 1
  %55 = load i32, ptr %54, align 4
  %56 = load ptr, ptr %2, align 8
  %57 = getelementptr inbounds nuw %struct.WALReadError, ptr %56, i32 0, i32 3
  %58 = load i32, ptr %57, align 4
  %59 = load ptr, ptr %2, align 8
  %60 = getelementptr inbounds nuw %struct.WALReadError, ptr %59, i32 0, i32 2
  %61 = load i32, ptr %60, align 8
  %62 = call i32 (ptr, ...) @errmsg(ptr noundef @.str.11, ptr noundef %52, i32 noundef %55, i32 noundef %58, i32 noundef %61)
  call void @errfinish(ptr noundef @.str.1, i32 noundef 1041, ptr noundef @__func__.WALReadRaiseError)
  br label %63

63:                                               ; preds = %50, %48, %46
  unreachable

64:                                               ; No predecessors!
  br label %65

65:                                               ; preds = %64
  br label %66

66:                                               ; preds = %65, %39
  br label %67

67:                                               ; preds = %66, %38
  call void @llvm.lifetime.end.p0(i64 64, ptr %4) #10
  call void @llvm.lifetime.end.p0(i64 8, ptr %3) #10
  ret void
}