; Function Attrs: nounwind uwtable
define dso_local void @WALReadRaiseError(ptr noundef readonly captures(none) %0) local_unnamed_addr #0 {
  %2 = alloca [64 x i8], align 16
  call void @llvm.lifetime.start.p0(i64 64, ptr nonnull %2) #8
  %3 = getelementptr inbounds nuw i8, ptr %0, i64 32
  %4 = load i32, ptr %3, align 8
  %5 = getelementptr inbounds nuw i8, ptr %0, i64 24
  %6 = load i64, ptr %5, align 8
  %7 = load i32, ptr @wal_segment_size, align 4
  %8 = sext i32 %7 to i64
  %9 = udiv i64 4294967296, %8
  %10 = udiv i64 %6, %9
  %11 = trunc i64 %10 to i32
  %12 = urem i64 %6, %9
  %13 = trunc nuw i64 %12 to i32
  %14 = call i32 (ptr, i64, ptr, ...) @pg_snprintf(ptr noundef nonnull %2, i64 noundef 64, ptr noundef nonnull @.str.18, i32 noundef %4, i32 noundef %11, i32 noundef %13) #8
  %15 = getelementptr inbounds nuw i8, ptr %0, i64 12
  %16 = load i32, ptr %15, align 4
  %17 = icmp slt i32 %16, 0
  br i1 %17, label %18, label %26

18:                                               ; preds = %1
  %19 = load i32, ptr %0, align 8
  %20 = tail call ptr @__errno_location() #10
  store i32 %19, ptr %20, align 4
  %21 = call zeroext i1 @errstart_cold(i32 noundef 21, ptr noundef null) #9
  call void @llvm.assume(i1 %21)
  %22 = call i32 @errcode_for_file_access() #8
  %23 = getelementptr inbounds nuw i8, ptr %0, i64 4
  %24 = load i32, ptr %23, align 4
  %25 = call i32 (ptr, ...) @errmsg(ptr noundef nonnull @.str.10, ptr noundef nonnull %2, i32 noundef %24) #8
  call void @errfinish(ptr noundef nonnull @.str.1, i32 noundef 1033, ptr noundef nonnull @__func__.WALReadRaiseError) #8
  unreachable

26:                                               ; preds = %1
  %27 = icmp eq i32 %16, 0
  br i1 %27, label %28, label %37

28:                                               ; preds = %26
  %29 = call zeroext i1 @errstart_cold(i32 noundef 21, ptr noundef null) #9
  call void @llvm.assume(i1 %29)
  %30 = call i32 @errcode(i32 noundef 16779816) #8
  %31 = getelementptr inbounds nuw i8, ptr %0, i64 4
  %32 = load i32, ptr %31, align 4
  %33 = load i32, ptr %15, align 4
  %34 = getelementptr inbounds nuw i8, ptr %0, i64 8
  %35 = load i32, ptr %34, align 8
  %36 = call i32 (ptr, ...) @errmsg(ptr noundef nonnull @.str.11, ptr noundef nonnull %2, i32 noundef %32, i32 noundef %33, i32 noundef %35) #8
  call void @errfinish(ptr noundef nonnull @.str.1, i32 noundef 1041, ptr noundef nonnull @__func__.WALReadRaiseError) #8
  unreachable

37:                                               ; preds = %26
  call void @llvm.lifetime.end.p0(i64 64, ptr nonnull %2) #8
  ret void
}